; Function Attrs: mustprogress uwtable
define void @_ZN3gmx32KeyValueTreeTransformRuleBuilderC2EPNS_8internal27KeyValueTreeTransformerImplERKNS_16KeyValueTreePathE(ptr nocapture noundef nonnull writeonly align 8 dereferenceable(16) %0, ptr noundef %1, ptr noundef nonnull align 8 dereferenceable(24) %2) unnamed_addr #3 align 2 personality ptr @__gxx_personality_v0 {
  store ptr %1, ptr %0, align 8
  %4 = tail call noalias noundef nonnull dereferenceable(120) ptr @_Znwm(i64 noundef 120) #24
  invoke void @_ZNSt6vectorINSt7__cxx1112basic_stringIcSt11char_traitsIcESaIcEEESaIS5_EEC2ERKS7_(ptr noundef nonnull align 8 dereferenceable(24) %4, ptr noundef nonnull align 8 dereferenceable(24) %2)
          to label %5 unwind label %10

5:                                                ; preds = %3
  %6 = getelementptr inbounds i8, ptr %4, i64 24
  %7 = getelementptr inbounds i8, ptr %4, i64 72
  tail call void @llvm.memset.p0.i64(ptr noundef nonnull align 8 dereferenceable(48) %6, i8 0, i64 48, i1 false)
  store ptr @_ZTIv, ptr %7, align 8
  %8 = getelementptr inbounds i8, ptr %4, i64 80
  tail call void @llvm.memset.p0.i64(ptr noundef nonnull align 8 dereferenceable(37) %8, i8 0, i64 37, i1 false)
  %9 = getelementptr inbounds i8, ptr %0, i64 8
  store ptr %4, ptr %9, align 8
  ret void

10:                                               ; preds = %3
  %11 = landingpad { ptr, i32 }
          cleanup
  tail call void @_ZdlPv(ptr noundef nonnull %4) #25
  resume { ptr, i32 } %11
}